; ModuleID = '23/1191.c'
source_filename = "23/1191.c"
target datalayout = "e-m:e-p270:32:32-p271:32:32-p272:64:64-i64:64-f80:128-n8:16:32:64-S128"
target triple = "x86_64-pc-linux-gnu"

@.str = private unnamed_addr constant [3 x i8] c"%c\00", align 1
@.str.1 = private unnamed_addr constant [2 x i8] c" \00", align 1

; Function Attrs: noinline nounwind uwtable
define dso_local i32 @main() #0 {
  %1 = alloca i32, align 4
  %2 = alloca [100 x i8], align 16
  %3 = alloca i8*, align 8
  %4 = alloca i8, align 1
  %5 = alloca i32, align 4
  %6 = alloca i32, align 4
  %7 = alloca i32, align 4
  %8 = alloca i8*, align 8
  %9 = alloca i8*, align 8
  store i32 0, i32* %1, align 4
  store i8 1, i8* %4, align 1
  %10 = getelementptr inbounds [100 x i8], [100 x i8]* %2, i64 0, i64 0
  %11 = call i32 (i8*, ...) bitcast (i32 (...)* @gets to i32 (i8*, ...)*)(i8* %10)
  %12 = getelementptr inbounds [100 x i8], [100 x i8]* %2, i64 0, i64 0
  %13 = call i64 @strlen(i8* %12) #3
  %14 = trunc i64 %13 to i32
  store i32 %14, i32* %7, align 4
  %15 = load i32, i32* %7, align 4
  %16 = sub nsw i32 %15, 1
  %17 = sext i32 %16 to i64
  %18 = getelementptr inbounds [100 x i8], [100 x i8]* %2, i64 0, i64 %17
  store i8* %18, i8** %8, align 8
  %19 = load i32, i32* %7, align 4
  %20 = sub nsw i32 %19, 1
  %21 = sext i32 %20 to i64
  %22 = getelementptr inbounds [100 x i8], [100 x i8]* %2, i64 0, i64 %21
  store i8* %22, i8** %9, align 8
  store i32 0, i32* %5, align 4
  br label %23

23:                                               ; preds = %48, %0
  %24 = load i32, i32* %5, align 4
  %25 = load i32, i32* %7, align 4
  %26 = sub nsw i32 %25, 1
  %27 = icmp sle i32 %24, %26
  %28 = zext i1 %27 to i32
  %29 = load i32, i32* %5, align 4
  %30 = sext i32 %29 to i64
  %31 = getelementptr inbounds [100 x i8], [100 x i8]* %2, i64 0, i64 %30
  %32 = load i8, i8* %31, align 1
  %33 = sext i8 %32 to i32
  %34 = icmp ne i32 %33, 0
  br i1 %34, label %35, label %51

35:                                               ; preds = %23
  %36 = load i32, i32* %5, align 4
  %37 = sext i32 %36 to i64
  %38 = getelementptr inbounds [100 x i8], [100 x i8]* %2, i64 0, i64 %37
  %39 = load i8, i8* %38, align 1
  %40 = sext i8 %39 to i32
  %41 = icmp eq i32 %40, 32
  br i1 %41, label %42, label %47

42:                                               ; preds = %35
  %43 = load i8, i8* %4, align 1
  %44 = sext i8 %43 to i32
  %45 = add nsw i32 %44, 1
  %46 = trunc i32 %45 to i8
  store i8 %46, i8* %4, align 1
  br label %47

47:                                               ; preds = %42, %35
  br label %48

48:                                               ; preds = %47
  %49 = load i32, i32* %5, align 4
  %50 = add nsw i32 %49, 1
  store i32 %50, i32* %5, align 4
  br label %23

51:                                               ; preds = %23
  %52 = load i8, i8* %4, align 1
  %53 = sext i8 %52 to i32
  %54 = icmp ne i32 %53, 1
  br i1 %54, label %55, label %111

55:                                               ; preds = %51
  br label %56

56:                                               ; preds = %92, %55
  %57 = load i8*, i8** %8, align 8
  %58 = getelementptr inbounds [100 x i8], [100 x i8]* %2, i64 0, i64 0
  %59 = icmp uge i8* %57, %58
  br i1 %59, label %60, label %95

60:                                               ; preds = %56
  %61 = load i8*, i8** %8, align 8
  %62 = load i8, i8* %61, align 1
  %63 = sext i8 %62 to i32
  %64 = icmp eq i32 %63, 32
  br i1 %64, label %65, label %91

65:                                               ; preds = %60
  %66 = load i8*, i8** %8, align 8
  store i8* %66, i8** %3, align 8
  br label %67

67:                                               ; preds = %82, %65
  %68 = load i8*, i8** %8, align 8
  %69 = load i8*, i8** %9, align 8
  %70 = icmp ule i8* %68, %69
  br i1 %70, label %71, label %85

71:                                               ; preds = %67
  %72 = load i8*, i8** %8, align 8
  %73 = load i8, i8* %72, align 1
  %74 = sext i8 %73 to i32
  %75 = icmp ne i32 %74, 32
  br i1 %75, label %76, label %81

76:                                               ; preds = %71
  %77 = load i8*, i8** %8, align 8
  %78 = load i8, i8* %77, align 1
  %79 = sext i8 %78 to i32
  %80 = call i32 (i8*, ...) @printf(i8* getelementptr inbounds ([3 x i8], [3 x i8]* @.str, i64 0, i64 0), i32 %79)
  br label %81

81:                                               ; preds = %76, %71
  br label %82

82:                                               ; preds = %81
  %83 = load i8*, i8** %8, align 8
  %84 = getelementptr inbounds i8, i8* %83, i32 1
  store i8* %84, i8** %8, align 8
  br label %67

85:                                               ; preds = %67
  %86 = call i32 (i8*, ...) @printf(i8* getelementptr inbounds ([2 x i8], [2 x i8]* @.str.1, i64 0, i64 0))
  %87 = load i8*, i8** %3, align 8
  %88 = getelementptr inbounds i8, i8* %87, i64 -1
  store i8* %88, i8** %8, align 8
  %89 = load i8*, i8** %3, align 8
  %90 = getelementptr inbounds i8, i8* %89, i64 -1
  store i8* %90, i8** %9, align 8
  br label %91

91:                                               ; preds = %85, %60
  br label %92

92:                                               ; preds = %91
  %93 = load i8*, i8** %8, align 8
  %94 = getelementptr inbounds i8, i8* %93, i32 -1
  store i8* %94, i8** %8, align 8
  br label %56

95:                                               ; preds = %56
  %96 = getelementptr inbounds [100 x i8], [100 x i8]* %2, i64 0, i64 0
  store i8* %96, i8** %8, align 8
  br label %97

97:                                               ; preds = %107, %95
  %98 = load i8*, i8** %8, align 8
  %99 = load i8, i8* %98, align 1
  %100 = sext i8 %99 to i32
  %101 = icmp ne i32 %100, 32
  br i1 %101, label %102, label %110

102:                                              ; preds = %97
  %103 = load i8*, i8** %8, align 8
  %104 = load i8, i8* %103, align 1
  %105 = sext i8 %104 to i32
  %106 = call i32 (i8*, ...) @printf(i8* getelementptr inbounds ([3 x i8], [3 x i8]* @.str, i64 0, i64 0), i32 %105)
  br label %107

107:                                              ; preds = %102
  %108 = load i8*, i8** %8, align 8
  %109 = getelementptr inbounds i8, i8* %108, i32 1
  store i8* %109, i8** %8, align 8
  br label %97

110:                                              ; preds = %97
  br label %114

111:                                              ; preds = %51
  %112 = getelementptr inbounds [100 x i8], [100 x i8]* %2, i64 0, i64 0
  %113 = call i32 @puts(i8* %112)
  br label %114

114:                                              ; preds = %111, %110
  %115 = load i32, i32* %1, align 4
  ret i32 %115
}

declare dso_local i32 @gets(...) #1

; Function Attrs: nounwind readonly
declare dso_local i64 @strlen(i8*) #2

declare dso_local i32 @printf(i8*, ...) #1

declare dso_local i32 @puts(i8*) #1


!llvm.module.flags = !{!0}
!llvm.ident = !{!1}

!0 = !{i32 1, !"wchar_size", i32 4}
!1 = !{!"clang version 10.0.0-4ubuntu1 "}
